; Function Attrs: nounwind uwtable
define range(i32 -2, 1) i32 @CVodeSetDeltaGammaMaxBadJac(ptr noundef %0, double noundef %1) local_unnamed_addr #0 {
  %3 = icmp eq ptr %0, null
  br i1 %3, label %4, label %5

4:                                                ; preds = %2
  tail call void (ptr, i32, i32, ptr, ptr, ptr, ...) @cvProcessError(ptr noundef null, i32 noundef -1, i32 noundef 1930, ptr noundef nonnull @__func__.CVodeSetDeltaGammaMaxBadJac, ptr noundef nonnull @.str, ptr noundef nonnull @.str.1) #13
  br label %cvLs_AccessLMem.exit.thread

5:                                                ; preds = %2
  %6 = getelementptr inbounds nuw i8, ptr %0, i64 1040
  %7 = load ptr, ptr %6, align 8, !tbaa !69
  %8 = icmp eq ptr %7, null
  br i1 %8, label %9, label %cvLs_AccessLMem.exit

9:                                                ; preds = %5
  tail call void (ptr, i32, i32, ptr, ptr, ptr, ...) @cvProcessError(ptr noundef nonnull %0, i32 noundef -2, i32 noundef 1937, ptr noundef nonnull @__func__.CVodeSetDeltaGammaMaxBadJac, ptr noundef nonnull @.str, ptr noundef nonnull @.str.30) #13
  br label %cvLs_AccessLMem.exit.thread

cvLs_AccessLMem.exit:                             ; preds = %5
  %10 = fcmp ugt double %1, 0.000000e+00
  %11 = getelementptr inbounds nuw i8, ptr %7, i64 40
  br i1 %10, label %13, label %12

12:                                               ; preds = %cvLs_AccessLMem.exit
  store double 2.000000e-01, ptr %11, align 8, !tbaa !57
  br label %cvLs_AccessLMem.exit.thread

13:                                               ; preds = %cvLs_AccessLMem.exit
  store double %1, ptr %11, align 8, !tbaa !57
  br label %cvLs_AccessLMem.exit.thread

cvLs_AccessLMem.exit.thread:                      ; preds = %9, %4, %12, %13
  %.0 = phi i32 [ 0, %13 ], [ 0, %12 ], [ -2, %9 ], [ -1, %4 ]
  ret i32 %.0
}